target datalayout = "e-m:e-p270:32:32-p271:32:32-p272:64:64-i64:64-i128:128-f80:128-n8:16:32:64-S128"
target triple = "x86_64-pc-linux-gnu"

%struct.pmix_object_t = type { %union.pthread_mutex_t, ptr, i32, %struct.pmix_tma }
%union.pthread_mutex_t = type { %struct.__pthread_mutex_s }
%struct.__pthread_mutex_s = type { i32, i32, i32, i32, i32, i16, i16, %struct.__pthread_internal_list }
%struct.__pthread_internal_list = type { ptr, ptr }
%struct.pmix_tma = type { ptr, ptr, ptr, ptr, ptr, ptr, ptr, ptr }
%struct.pmix_bfrop_type_info_t = type { %struct.pmix_object_t, i16, ptr, ptr, ptr, ptr, ptr }
%struct.pmix_pointer_array_t = type { %struct.pmix_object_t, i32, i32, i32, i32, i32, ptr, ptr }
%struct.pmix_envar_t = type { ptr, ptr, i8 }

; Function Attrs: inlinehint nounwind uwtable
define internal ptr @pmix_pointer_array_get_item(ptr noundef %0, i32 noundef %1) #3 {
  %3 = alloca ptr, align 8
  %4 = alloca ptr, align 8
  %5 = alloca i32, align 4
  %6 = alloca ptr, align 8
  %7 = alloca i32, align 4
  store ptr %0, ptr %4, align 8, !tbaa !3
  store i32 %1, ptr %5, align 4, !tbaa !9
  call void @llvm.lifetime.start.p0(i64 8, ptr %6) #9
  %8 = load i32, ptr %5, align 4, !tbaa !9
  %9 = icmp sgt i32 0, %8
  br i1 %9, label %16, label %10

10:                                               ; preds = %2
  %11 = load ptr, ptr %4, align 8, !tbaa !3
  %12 = getelementptr inbounds nuw %struct.pmix_pointer_array_t, ptr %11, i32 0, i32 3
  %13 = load i32, ptr %12, align 8, !tbaa !22
  %14 = load i32, ptr %5, align 4, !tbaa !9
  %15 = icmp sle i32 %13, %14
  br label %16

16:                                               ; preds = %10, %2
  %17 = phi i1 [ true, %2 ], [ %15, %10 ]
  %18 = xor i1 %17, true
  %19 = xor i1 %18, true
  %20 = zext i1 %19 to i32
  %21 = sext i32 %20 to i64
  %22 = call i64 @llvm.expect.i64(i64 %21, i64 0)
  %23 = icmp ne i64 %22, 0
  br i1 %23, label %24, label %25

24:                                               ; preds = %16
  store ptr null, ptr %3, align 8
  store i32 1, ptr %7, align 4
  br label %34

25:                                               ; preds = %16
  %26 = load ptr, ptr %4, align 8, !tbaa !3
  %27 = getelementptr inbounds nuw %struct.pmix_pointer_array_t, ptr %26, i32 0, i32 7
  %28 = load ptr, ptr %27, align 8, !tbaa !25
  %29 = load i32, ptr %5, align 4, !tbaa !9
  %30 = sext i32 %29 to i64
  %31 = getelementptr inbounds ptr, ptr %28, i64 %30
  %32 = load ptr, ptr %31, align 8, !tbaa !8
  store ptr %32, ptr %6, align 8, !tbaa !8
  %33 = load ptr, ptr %6, align 8, !tbaa !8
  store ptr %33, ptr %3, align 8
  store i32 1, ptr %7, align 4
  br label %34

34:                                               ; preds = %25, %24
  call void @llvm.lifetime.end.p0(i64 8, ptr %6) #9
  %35 = load ptr, ptr %3, align 8
  ret ptr %35
}

; Function Attrs: nounwind uwtable
define i32 @pmix_bfrops_base_pack_envar(ptr noundef %0, ptr noundef %1, ptr noundef %2, i32 noundef %3, i16 noundef zeroext %4) #0 {
  %6 = alloca i32, align 4
  %7 = alloca ptr, align 8
  %8 = alloca ptr, align 8
  %9 = alloca ptr, align 8
  %10 = alloca i32, align 4
  %11 = alloca i16, align 2
  %12 = alloca ptr, align 8
  %13 = alloca i32, align 4
  %14 = alloca i32, align 4
  %15 = alloca ptr, align 8
  %16 = alloca i32, align 4
  %17 = alloca ptr, align 8
  %18 = alloca ptr, align 8
  store ptr %0, ptr %7, align 8, !tbaa !3
  store ptr %1, ptr %8, align 8, !tbaa !8
  store ptr %2, ptr %9, align 8, !tbaa !8
  store i32 %3, ptr %10, align 4, !tbaa !9
  store i16 %4, ptr %11, align 2, !tbaa !11
  call void @llvm.lifetime.start.p0(i64 8, ptr %12) #9
  %19 = load ptr, ptr %9, align 8, !tbaa !8
  store ptr %19, ptr %12, align 8, !tbaa !8
  call void @llvm.lifetime.start.p0(i64 4, ptr %13) #9
  call void @llvm.lifetime.start.p0(i64 4, ptr %14) #9
  store i32 0, ptr %13, align 4, !tbaa !9
  br label %20

20:                                               ; preds = %103, %5
  %21 = load i32, ptr %13, align 4, !tbaa !9
  %22 = load i32, ptr %10, align 4, !tbaa !9
  %23 = icmp slt i32 %21, %22
  br i1 %23, label %24, label %106

24:                                               ; preds = %20
  br label %25

25:                                               ; preds = %24
  call void @llvm.lifetime.start.p0(i64 8, ptr %15) #9
  %26 = load ptr, ptr %7, align 8, !tbaa !3
  %27 = call ptr @pmix_pointer_array_get_item(ptr noundef %26, i32 noundef 3)
  store ptr %27, ptr %15, align 8, !tbaa !8
  %28 = load ptr, ptr %15, align 8, !tbaa !8
  %29 = icmp eq ptr null, %28
  br i1 %29, label %30, label %31

30:                                               ; preds = %25
  store i32 -16, ptr %14, align 4, !tbaa !9
  br label %43

31:                                               ; preds = %25
  %32 = load ptr, ptr %15, align 8, !tbaa !8
  %33 = getelementptr inbounds nuw %struct.pmix_bfrop_type_info_t, ptr %32, i32 0, i32 3
  %34 = load ptr, ptr %33, align 8, !tbaa !20
  %35 = load ptr, ptr %7, align 8, !tbaa !3
  %36 = load ptr, ptr %8, align 8, !tbaa !8
  %37 = load ptr, ptr %12, align 8, !tbaa !8
  %38 = load i32, ptr %13, align 4, !tbaa !9
  %39 = sext i32 %38 to i64
  %40 = getelementptr inbounds %struct.pmix_envar_t, ptr %37, i64 %39
  %41 = getelementptr inbounds nuw %struct.pmix_envar_t, ptr %40, i32 0, i32 0
  %42 = call i32 %34(ptr noundef %35, ptr noundef %36, ptr noundef %41, i32 noundef 1, i16 noundef zeroext 3)
  store i32 %42, ptr %14, align 4, !tbaa !9
  br label %43

43:                                               ; preds = %31, %30
  call void @llvm.lifetime.end.p0(i64 8, ptr %15) #9
  br label %44

44:                                               ; preds = %43
  br label %45

45:                                               ; preds = %44
  %46 = load i32, ptr %14, align 4, !tbaa !9
  %47 = icmp ne i32 0, %46
  br i1 %47, label %48, label %50

48:                                               ; preds = %45
  %49 = load i32, ptr %14, align 4, !tbaa !9
  store i32 %49, ptr %6, align 4
  store i32 1, ptr %16, align 4
  br label %107

50:                                               ; preds = %45
  br label %51

51:                                               ; preds = %50
  call void @llvm.lifetime.start.p0(i64 8, ptr %17) #9
  %52 = load ptr, ptr %7, align 8, !tbaa !3
  %53 = call ptr @pmix_pointer_array_get_item(ptr noundef %52, i32 noundef 3)
  store ptr %53, ptr %17, align 8, !tbaa !8
  %54 = load ptr, ptr %17, align 8, !tbaa !8
  %55 = icmp eq ptr null, %54
  br i1 %55, label %56, label %57

56:                                               ; preds = %51
  store i32 -16, ptr %14, align 4, !tbaa !9
  br label %69

57:                                               ; preds = %51
  %58 = load ptr, ptr %17, align 8, !tbaa !8
  %59 = getelementptr inbounds nuw %struct.pmix_bfrop_type_info_t, ptr %58, i32 0, i32 3
  %60 = load ptr, ptr %59, align 8, !tbaa !20
  %61 = load ptr, ptr %7, align 8, !tbaa !3
  %62 = load ptr, ptr %8, align 8, !tbaa !8
  %63 = load ptr, ptr %12, align 8, !tbaa !8
  %64 = load i32, ptr %13, align 4, !tbaa !9
  %65 = sext i32 %64 to i64
  %66 = getelementptr inbounds %struct.pmix_envar_t, ptr %63, i64 %65
  %67 = getelementptr inbounds nuw %struct.pmix_envar_t, ptr %66, i32 0, i32 1
  %68 = call i32 %60(ptr noundef %61, ptr noundef %62, ptr noundef %67, i32 noundef 1, i16 noundef zeroext 3)
  store i32 %68, ptr %14, align 4, !tbaa !9
  br label %69

69:                                               ; preds = %57, %56
  call void @llvm.lifetime.end.p0(i64 8, ptr %17) #9
  br label %70

70:                                               ; preds = %69
  br label %71

71:                                               ; preds = %70
  %72 = load i32, ptr %14, align 4, !tbaa !9
  %73 = icmp ne i32 0, %72
  br i1 %73, label %74, label %76

74:                                               ; preds = %71
  %75 = load i32, ptr %14, align 4, !tbaa !9
  store i32 %75, ptr %6, align 4
  store i32 1, ptr %16, align 4
  br label %107

76:                                               ; preds = %71
  br label %77

77:                                               ; preds = %76
  call void @llvm.lifetime.start.p0(i64 8, ptr %18) #9
  %78 = load ptr, ptr %7, align 8, !tbaa !3
  %79 = call ptr @pmix_pointer_array_get_item(ptr noundef %78, i32 noundef 2)
  store ptr %79, ptr %18, align 8, !tbaa !8
  %80 = load ptr, ptr %18, align 8, !tbaa !8
  %81 = icmp eq ptr null, %80
  br i1 %81, label %82, label %83

82:                                               ; preds = %77
  store i32 -16, ptr %14, align 4, !tbaa !9
  br label %95

83:                                               ; preds = %77
  %84 = load ptr, ptr %18, align 8, !tbaa !8
  %85 = getelementptr inbounds nuw %struct.pmix_bfrop_type_info_t, ptr %84, i32 0, i32 3
  %86 = load ptr, ptr %85, align 8, !tbaa !20
  %87 = load ptr, ptr %7, align 8, !tbaa !3
  %88 = load ptr, ptr %8, align 8, !tbaa !8
  %89 = load ptr, ptr %12, align 8, !tbaa !8
  %90 = load i32, ptr %13, align 4, !tbaa !9
  %91 = sext i32 %90 to i64
  %92 = getelementptr inbounds %struct.pmix_envar_t, ptr %89, i64 %91
  %93 = getelementptr inbounds nuw %struct.pmix_envar_t, ptr %92, i32 0, i32 2
  %94 = call i32 %86(ptr noundef %87, ptr noundef %88, ptr noundef %93, i32 noundef 1, i16 noundef zeroext 2)
  store i32 %94, ptr %14, align 4, !tbaa !9
  br label %95

95:                                               ; preds = %83, %82
  call void @llvm.lifetime.end.p0(i64 8, ptr %18) #9
  br label %96

96:                                               ; preds = %95
  br label %97

97:                                               ; preds = %96
  %98 = load i32, ptr %14, align 4, !tbaa !9
  %99 = icmp ne i32 0, %98
  br i1 %99, label %100, label %102

100:                                              ; preds = %97
  %101 = load i32, ptr %14, align 4, !tbaa !9
  store i32 %101, ptr %6, align 4
  store i32 1, ptr %16, align 4
  br label %107

102:                                              ; preds = %97
  br label %103

103:                                              ; preds = %102
  %104 = load i32, ptr %13, align 4, !tbaa !9
  %105 = add nsw i32 %104, 1
  store i32 %105, ptr %13, align 4, !tbaa !9
  br label %20, !llvm.loop !133

106:                                              ; preds = %20
  store i32 0, ptr %6, align 4
  store i32 1, ptr %16, align 4
  br label %107

107:                                              ; preds = %106, %100, %74, %48
  call void @llvm.lifetime.end.p0(i64 4, ptr %14) #9
  call void @llvm.lifetime.end.p0(i64 4, ptr %13) #9
  call void @llvm.lifetime.end.p0(i64 8, ptr %12) #9
  %108 = load i32, ptr %6, align 4
  ret i32 %108
}